; Function Attrs: mustprogress nounwind uwtable
define dso_local noundef zeroext i1 @_ZNK5clang4ento22PathSensitiveBugReport13isInterestingEPKNS_15LocationContextE(ptr noundef nonnull align 8 dereferenceable(1016) %0, ptr noundef %1) local_unnamed_addr #3 align 2 {
  %.not = icmp eq ptr %1, null
  br i1 %.not, label %36, label %3

3:                                                ; preds = %2
  %4 = getelementptr inbounds nuw i8, ptr %0, i64 552
  %5 = getelementptr inbounds i8, ptr %0, i64 560
  %6 = load ptr, ptr %5, align 8
  %7 = load ptr, ptr %4, align 8
  %8 = icmp eq ptr %6, %7
  br i1 %8, label %9, label %19

9:                                                ; preds = %3
  %10 = getelementptr inbounds i8, ptr %0, i64 572
  %11 = load i32, ptr %10, align 4
  %12 = zext i32 %11 to i64
  %13 = getelementptr inbounds ptr, ptr %7, i64 %12
  %.not1317.i.i = icmp eq i32 %11, 0
  br i1 %.not1317.i.i, label %._crit_edge.i.i, label %.lr.ph.i.i

.lr.ph.i.i:                                       ; preds = %9, %16
  %.01118.i.i = phi ptr [ %17, %16 ], [ %7, %9 ]
  %14 = load ptr, ptr %.01118.i.i, align 8
  %15 = icmp eq ptr %14, %1
  br i1 %15, label %_ZNK4llvm15SmallPtrSetImplIPKN5clang15LocationContextEE5countES4_.exit, label %16

16:                                               ; preds = %.lr.ph.i.i
  %17 = getelementptr inbounds i8, ptr %.01118.i.i, i64 8
  %.not13.i.i = icmp eq ptr %17, %13
  br i1 %.not13.i.i, label %._crit_edge.i.i, label %.lr.ph.i.i, !llvm.loop !64

._crit_edge.i.i:                                  ; preds = %16, %9
  %18 = getelementptr inbounds ptr, ptr %6, i64 %12
  br label %_ZNK4llvm15SmallPtrSetImplIPKN5clang15LocationContextEE5countES4_.exit

19:                                               ; preds = %3
  %20 = tail call noundef ptr @_ZNK4llvm19SmallPtrSetImplBase6doFindEPKv(ptr noundef nonnull align 8 dereferenceable(28) %4, ptr noundef nonnull %1) #26
  %.not.i.i = icmp eq ptr %20, null
  %.pre.i = load ptr, ptr %5, align 8
  %.pre4.i = load ptr, ptr %4, align 8
  br i1 %.not.i.i, label %21, label %._ZNK4llvm19SmallPtrSetImplBase8find_impEPKv.exit_crit_edge.i

._ZNK4llvm19SmallPtrSetImplBase8find_impEPKv.exit_crit_edge.i: ; preds = %19
  %.phi.trans.insert.i = getelementptr inbounds i8, ptr %0, i64 572
  %.pre5.i = load i32, ptr %.phi.trans.insert.i, align 4
  br label %_ZNK4llvm15SmallPtrSetImplIPKN5clang15LocationContextEE5countES4_.exit

21:                                               ; preds = %19
  %22 = icmp eq ptr %.pre.i, %.pre4.i
  %23 = getelementptr inbounds i8, ptr %0, i64 572
  %24 = load i32, ptr %23, align 4
  %25 = getelementptr inbounds i8, ptr %0, i64 568
  %26 = load i32, ptr %25, align 8
  %.v.v.i14.i.i = select i1 %22, i32 %24, i32 %26
  %.v.i15.i.i = zext i32 %.v.v.i14.i.i to i64
  %27 = getelementptr inbounds ptr, ptr %.pre.i, i64 %.v.i15.i.i
  br label %_ZNK4llvm15SmallPtrSetImplIPKN5clang15LocationContextEE5countES4_.exit

_ZNK4llvm15SmallPtrSetImplIPKN5clang15LocationContextEE5countES4_.exit: ; preds = %.lr.ph.i.i, %._crit_edge.i.i, %._ZNK4llvm19SmallPtrSetImplBase8find_impEPKv.exit_crit_edge.i, %21
  %28 = phi i32 [ %11, %._crit_edge.i.i ], [ %24, %21 ], [ %.pre5.i, %._ZNK4llvm19SmallPtrSetImplBase8find_impEPKv.exit_crit_edge.i ], [ %11, %.lr.ph.i.i ]
  %29 = phi ptr [ %6, %._crit_edge.i.i ], [ %.pre4.i, %21 ], [ %.pre4.i, %._ZNK4llvm19SmallPtrSetImplBase8find_impEPKv.exit_crit_edge.i ], [ %6, %.lr.ph.i.i ]
  %30 = phi ptr [ %6, %._crit_edge.i.i ], [ %.pre.i, %21 ], [ %.pre.i, %._ZNK4llvm19SmallPtrSetImplBase8find_impEPKv.exit_crit_edge.i ], [ %6, %.lr.ph.i.i ]
  %.0.i.i = phi ptr [ %18, %._crit_edge.i.i ], [ %27, %21 ], [ %20, %._ZNK4llvm19SmallPtrSetImplBase8find_impEPKv.exit_crit_edge.i ], [ %.01118.i.i, %.lr.ph.i.i ]
  %31 = icmp eq ptr %30, %29
  %32 = getelementptr inbounds i8, ptr %0, i64 568
  %33 = load i32, ptr %32, align 8
  %.v.v.i.i = select i1 %31, i32 %28, i32 %33
  %.v.i.i = zext i32 %.v.v.i.i to i64
  %34 = getelementptr inbounds ptr, ptr %30, i64 %.v.i.i
  %35 = icmp ne ptr %.0.i.i, %34
  br label %36

36:                                               ; preds = %2, %_ZNK4llvm15SmallPtrSetImplIPKN5clang15LocationContextEE5countES4_.exit
  %.0 = phi i1 [ %35, %_ZNK4llvm15SmallPtrSetImplIPKN5clang15LocationContextEE5countES4_.exit ], [ false, %2 ]
  ret i1 %.0
}